; Function Attrs: mustprogress uwtable
define hidden noundef zeroext i1 @_ZN7nanogui7TextBox14copy_selectionEv(ptr noundef nonnull align 8 dereferenceable(440) %0) local_unnamed_addr #3 align 2 personality ptr @__gxx_personality_v0 {
  %2 = alloca %"class.std::__cxx11::basic_string", align 8
  %3 = getelementptr inbounds i8, ptr %0, i64 396
  %4 = load i32, ptr %3, align 4
  %5 = icmp sgt i32 %4, -1
  br i1 %5, label %6, label %21

6:                                                ; preds = %1
  %7 = tail call noundef ptr @_ZN7nanogui6Widget6screenEv(ptr noundef nonnull align 8 dereferenceable(140) %0)
  %.not = icmp eq ptr %7, null
  br i1 %.not, label %21, label %8

8:                                                ; preds = %6
  %9 = getelementptr inbounds i8, ptr %0, i64 392
  %10 = load i32, ptr %9, align 8
  %11 = load i32, ptr %3, align 4
  %spec.select = tail call i32 @llvm.smin.i32(i32 %10, i32 %11)
  %spec.select11 = tail call i32 @llvm.smax.i32(i32 %10, i32 %11)
  %12 = getelementptr inbounds i8, ptr %7, i64 144
  %13 = load ptr, ptr %12, align 8
  %14 = getelementptr inbounds i8, ptr %0, i64 328
  %15 = sext i32 %spec.select to i64
  %16 = sext i32 %spec.select11 to i64
  call void @_ZNKSt7__cxx1112basic_stringIcSt11char_traitsIcESaIcEE6substrEmm(ptr dead_on_unwind nonnull writable sret(%"class.std::__cxx11::basic_string") align 8 %2, ptr noundef nonnull align 8 dereferenceable(32) %14, i64 noundef %15, i64 noundef %16)
  %17 = call noundef ptr @_ZNKSt7__cxx1112basic_stringIcSt11char_traitsIcESaIcEE5c_strEv(ptr noundef nonnull align 8 dereferenceable(32) %2) #27
  invoke void @glfwSetClipboardString(ptr noundef %13, ptr noundef %17)
          to label %18 unwind label %19

18:                                               ; preds = %8
  call void @_ZNSt7__cxx1112basic_stringIcSt11char_traitsIcESaIcEED1Ev(ptr noundef nonnull align 8 dereferenceable(32) %2) #27
  br label %21

19:                                               ; preds = %8
  %20 = landingpad { ptr, i32 }
          cleanup
  call void @_ZNSt7__cxx1112basic_stringIcSt11char_traitsIcESaIcEED1Ev(ptr noundef nonnull align 8 dereferenceable(32) %2) #27
  resume { ptr, i32 } %20

21:                                               ; preds = %1, %6, %18
  %.0 = phi i1 [ true, %18 ], [ false, %6 ], [ false, %1 ]
  ret i1 %.0
}